target datalayout = "e-m:e-p270:32:32-p271:32:32-p272:64:64-i64:64-i128:128-f80:128-n8:16:32:64-S128"
target triple = "x86_64-pc-linux-gnu"

%"struct.std::atomic" = type { %"struct.std::__atomic_base" }
%"struct.std::__atomic_base" = type { ptr }
%"struct.std::atomic.0" = type { %"struct.std::__atomic_base.1" }
%"struct.std::__atomic_base.1" = type { ptr }

@_ZN3tbb6detail2r123allocate_handler_unsafeE = global ptr null, align 8
@_ZN3tbb6detail2r137cache_aligned_allocate_handler_unsafeE = global ptr null, align 8
@.str = private unnamed_addr constant [18 x i8] c"libtbbmalloc.so.2\00", align 1
@_ZN3tbb6detail2r1L18deallocate_handlerE = internal global ptr null, align 8
@_ZN3tbb6detail2r1L32cache_aligned_deallocate_handlerE = internal global ptr null, align 8
@_ZN3tbb6detail2r1L16allocate_handlerE = internal global %"struct.std::atomic" { %"struct.std::__atomic_base" { ptr @_ZN3tbb6detail2r1L27initialize_allocate_handlerEm } }, align 8
@_ZN3tbb6detail2r1L30cache_aligned_allocate_handlerE = internal global %"struct.std::atomic.0" { %"struct.std::__atomic_base.1" { ptr @_ZN3tbb6detail2r1L41initialize_cache_aligned_allocate_handlerEmm } }, align 8
@.str.1 = private unnamed_addr constant [10 x i8] c"ALLOCATOR\00", align 1
@.str.2 = private unnamed_addr constant [16 x i8] c"scalable_malloc\00", align 1
@.str.3 = private unnamed_addr constant [7 x i8] c"malloc\00", align 1

; Function Attrs: mustprogress nounwind sspstrong uwtable
define linkonce_odr noundef i32 @_ZStanSt12memory_orderSt23__memory_order_modifier(i32 noundef %0, i32 noundef %1) #5 comdat {
  %3 = alloca i32, align 4
  %4 = alloca i32, align 4
  store i32 %0, ptr %3, align 4, !tbaa !15
  store i32 %1, ptr %4, align 4, !tbaa !27
  %5 = load i32, ptr %3, align 4, !tbaa !15
  %6 = load i32, ptr %4, align 4, !tbaa !27
  %7 = and i32 %5, %6
  ret i32 %7
}

; Function Attrs: alwaysinline mustprogress nounwind sspstrong uwtable
define linkonce_odr void @_ZNSt13__atomic_baseIPFPvmmEE5storeES2_St12memory_order(ptr noundef nonnull align 8 dereferenceable(8) %0, ptr noundef %1, i32 noundef %2) #6 comdat align 2 {
  %4 = alloca ptr, align 8
  %5 = alloca ptr, align 8
  %6 = alloca i32, align 4
  %7 = alloca i32, align 4
  %8 = alloca ptr, align 8
  store ptr %0, ptr %4, align 8, !tbaa !25
  store ptr %1, ptr %5, align 8, !tbaa !9
  store i32 %2, ptr %6, align 4, !tbaa !15
  %9 = load ptr, ptr %4, align 8
  call void @llvm.lifetime.start.p0(i64 4, ptr %7) #13
  %10 = load i32, ptr %6, align 4, !tbaa !15
  %11 = call noundef i32 @_ZStanSt12memory_orderSt23__memory_order_modifier(i32 noundef %10, i32 noundef 65535)
  store i32 %11, ptr %7, align 4, !tbaa !15
  br label %12

12:                                               ; preds = %3
  br label %13

13:                                               ; preds = %12
  br label %14

14:                                               ; preds = %13
  br label %15

15:                                               ; preds = %14
  br label %16

16:                                               ; preds = %15
  br label %17

17:                                               ; preds = %16
  br label %18

18:                                               ; preds = %17
  br label %19

19:                                               ; preds = %18
  br label %20

20:                                               ; preds = %19
  %21 = getelementptr inbounds nuw %"struct.std::__atomic_base.1", ptr %9, i32 0, i32 0
  %22 = load i32, ptr %6, align 4, !tbaa !15
  %23 = load ptr, ptr %5, align 8, !tbaa !9
  store ptr %23, ptr %8, align 8, !tbaa !9
  switch i32 %22, label %24 [
    i32 3, label %26
    i32 5, label %28
  ]

24:                                               ; preds = %20
  %25 = load i64, ptr %8, align 8
  store atomic i64 %25, ptr %21 monotonic, align 8
  br label %30

26:                                               ; preds = %20
  %27 = load i64, ptr %8, align 8
  store atomic i64 %27, ptr %21 release, align 8
  br label %30

28:                                               ; preds = %20
  %29 = load i64, ptr %8, align 8
  store atomic i64 %29, ptr %21 seq_cst, align 8
  br label %30

30:                                               ; preds = %28, %26, %24
  call void @llvm.lifetime.end.p0(i64 4, ptr %7) #13
  ret void
}

; Function Attrs: alwaysinline mustprogress nounwind sspstrong uwtable
define linkonce_odr void @_ZNSt13__atomic_baseIPFPvmEE5storeES2_St12memory_order(ptr noundef nonnull align 8 dereferenceable(8) %0, ptr noundef %1, i32 noundef %2) #6 comdat align 2 {
  %4 = alloca ptr, align 8
  %5 = alloca ptr, align 8
  %6 = alloca i32, align 4
  %7 = alloca i32, align 4
  %8 = alloca ptr, align 8
  store ptr %0, ptr %4, align 8, !tbaa !29
  store ptr %1, ptr %5, align 8, !tbaa !9
  store i32 %2, ptr %6, align 4, !tbaa !15
  %9 = load ptr, ptr %4, align 8
  call void @llvm.lifetime.start.p0(i64 4, ptr %7) #13
  %10 = load i32, ptr %6, align 4, !tbaa !15
  %11 = call noundef i32 @_ZStanSt12memory_orderSt23__memory_order_modifier(i32 noundef %10, i32 noundef 65535)
  store i32 %11, ptr %7, align 4, !tbaa !15
  br label %12

12:                                               ; preds = %3
  br label %13

13:                                               ; preds = %12
  br label %14

14:                                               ; preds = %13
  br label %15

15:                                               ; preds = %14
  br label %16

16:                                               ; preds = %15
  br label %17

17:                                               ; preds = %16
  br label %18

18:                                               ; preds = %17
  br label %19

19:                                               ; preds = %18
  br label %20

20:                                               ; preds = %19
  %21 = getelementptr inbounds nuw %"struct.std::__atomic_base", ptr %9, i32 0, i32 0
  %22 = load i32, ptr %6, align 4, !tbaa !15
  %23 = load ptr, ptr %5, align 8, !tbaa !9
  store ptr %23, ptr %8, align 8, !tbaa !9
  switch i32 %22, label %24 [
    i32 3, label %26
    i32 5, label %28
  ]

24:                                               ; preds = %20
  %25 = load i64, ptr %8, align 8
  store atomic i64 %25, ptr %21 monotonic, align 8
  br label %30

26:                                               ; preds = %20
  %27 = load i64, ptr %8, align 8
  store atomic i64 %27, ptr %21 release, align 8
  br label %30

28:                                               ; preds = %20
  %29 = load i64, ptr %8, align 8
  store atomic i64 %29, ptr %21 seq_cst, align 8
  br label %30

30:                                               ; preds = %28, %26, %24
  call void @llvm.lifetime.end.p0(i64 4, ptr %7) #13
  ret void
}

; Function Attrs: mustprogress nounwind sspstrong uwtable
define linkonce_odr void @_ZNSt6atomicIPFPvmmEE5storeES2_St12memory_order(ptr noundef nonnull align 8 dereferenceable(8) %0, ptr noundef %1, i32 noundef %2) #5 comdat align 2 {
  %4 = alloca ptr, align 8
  %5 = alloca ptr, align 8
  %6 = alloca i32, align 4
  store ptr %0, ptr %4, align 8, !tbaa !17
  store ptr %1, ptr %5, align 8, !tbaa !9
  store i32 %2, ptr %6, align 4, !tbaa !15
  %7 = load ptr, ptr %4, align 8
  %8 = getelementptr inbounds nuw %"struct.std::atomic.0", ptr %7, i32 0, i32 0
  %9 = load ptr, ptr %5, align 8, !tbaa !9
  %10 = load i32, ptr %6, align 4, !tbaa !15
  call void @_ZNSt13__atomic_baseIPFPvmmEE5storeES2_St12memory_order(ptr noundef nonnull align 8 dereferenceable(8) %8, ptr noundef %9, i32 noundef %10) #13
  ret void
}

; Function Attrs: mustprogress nounwind sspstrong uwtable
define linkonce_odr void @_ZNSt6atomicIPFPvmEE5storeES2_St12memory_order(ptr noundef nonnull align 8 dereferenceable(8) %0, ptr noundef %1, i32 noundef %2) #5 comdat align 2 {
  %4 = alloca ptr, align 8
  %5 = alloca ptr, align 8
  %6 = alloca i32, align 4
  store ptr %0, ptr %4, align 8, !tbaa !13
  store ptr %1, ptr %5, align 8, !tbaa !9
  store i32 %2, ptr %6, align 4, !tbaa !15
  %7 = load ptr, ptr %4, align 8
  %8 = getelementptr inbounds nuw %"struct.std::atomic", ptr %7, i32 0, i32 0
  %9 = load ptr, ptr %5, align 8, !tbaa !9
  %10 = load i32, ptr %6, align 4, !tbaa !15
  call void @_ZNSt13__atomic_baseIPFPvmEE5storeES2_St12memory_order(ptr noundef nonnull align 8 dereferenceable(8) %8, ptr noundef %9, i32 noundef %10) #13
  ret void
}

; Function Attrs: mustprogress sspstrong uwtable
define void @_ZN3tbb6detail2r127initialize_handler_pointersEv() #0 {
  %1 = alloca i8, align 1
  call void @llvm.lifetime.start.p0(i64 1, ptr %1) #13
  %2 = call noundef zeroext i1 @_ZN3tbb6detail2r112dynamic_linkEPKcPKNS1_23dynamic_link_descriptorEmPPvi(ptr noundef @.str, ptr noundef @_ZN3tbb6detail2r1L15MallocLinkTableE, i64 noundef 4, ptr noundef null, i32 noundef 7)
  %3 = zext i1 %2 to i8
  store i8 %3, ptr %1, align 1, !tbaa !3
  %4 = load i8, ptr %1, align 1, !tbaa !3, !range !7, !noundef !8
  %5 = trunc i8 %4 to i1
  br i1 %5, label %7, label %6

6:                                                ; preds = %0
  store ptr @malloc, ptr @_ZN3tbb6detail2r123allocate_handler_unsafeE, align 8, !tbaa !9
  store ptr @free, ptr @_ZN3tbb6detail2r1L18deallocate_handlerE, align 8, !tbaa !9
  store ptr @_ZN3tbb6detail2r1L26std_cache_aligned_allocateEmm, ptr @_ZN3tbb6detail2r137cache_aligned_allocate_handler_unsafeE, align 8, !tbaa !9
  store ptr @_ZN3tbb6detail2r1L28std_cache_aligned_deallocateEPv, ptr @_ZN3tbb6detail2r1L32cache_aligned_deallocate_handlerE, align 8, !tbaa !9
  br label %7

7:                                                ; preds = %6, %0
  %8 = load ptr, ptr @_ZN3tbb6detail2r123allocate_handler_unsafeE, align 8, !tbaa !9
  call void @_ZNSt6atomicIPFPvmEE5storeES2_St12memory_order(ptr noundef nonnull align 8 dereferenceable(8) @_ZN3tbb6detail2r1L16allocate_handlerE, ptr noundef %8, i32 noundef 3) #13
  %9 = load ptr, ptr @_ZN3tbb6detail2r137cache_aligned_allocate_handler_unsafeE, align 8, !tbaa !9
  call void @_ZNSt6atomicIPFPvmmEE5storeES2_St12memory_order(ptr noundef nonnull align 8 dereferenceable(8) @_ZN3tbb6detail2r1L30cache_aligned_allocate_handlerE, ptr noundef %9, i32 noundef 3) #13
  %10 = load i8, ptr %1, align 1, !tbaa !3, !range !7, !noundef !8
  %11 = trunc i8 %10 to i1
  %12 = select i1 %11, ptr @.str.2, ptr @.str.3
  call void (ptr, ptr, ...) @_ZN3tbb6detail2r121PrintExtraVersionInfoEPKcS3_z(ptr noundef @.str.1, ptr noundef %12)
  call void @llvm.lifetime.end.p0(i64 1, ptr %1) #13
  ret void
}