; Function Attrs: mustprogress sspstrong uwtable
define void @_ZN3tbb6detail2r127initialize_handler_pointersEv() #0 {
  %1 = tail call noundef zeroext i1 @_ZN3tbb6detail2r112dynamic_linkEPKcPKNS1_23dynamic_link_descriptorEmPPvi(ptr noundef nonnull @.str, ptr noundef nonnull @_ZN3tbb6detail2r1L15MallocLinkTableE, i64 noundef 4, ptr noundef null, i32 noundef 7)
  br i1 %1, label %._crit_edge, label %2

._crit_edge:                                      ; preds = %0
  %.pre = load ptr, ptr @_ZN3tbb6detail2r123allocate_handler_unsafeE, align 8, !tbaa !3
  %.pre2 = load ptr, ptr @_ZN3tbb6detail2r137cache_aligned_allocate_handler_unsafeE, align 8, !tbaa !3
  br label %3

2:                                                ; preds = %0
  store ptr @malloc, ptr @_ZN3tbb6detail2r123allocate_handler_unsafeE, align 8, !tbaa !3
  store ptr @free, ptr @_ZN3tbb6detail2r1L18deallocate_handlerE, align 8, !tbaa !3
  store ptr @_ZN3tbb6detail2r1L26std_cache_aligned_allocateEmm, ptr @_ZN3tbb6detail2r137cache_aligned_allocate_handler_unsafeE, align 8, !tbaa !3
  store ptr @_ZN3tbb6detail2r1L28std_cache_aligned_deallocateEPv, ptr @_ZN3tbb6detail2r1L32cache_aligned_deallocate_handlerE, align 8, !tbaa !3
  br label %3

3:                                                ; preds = %._crit_edge, %2
  %4 = phi ptr [ @_ZN3tbb6detail2r1L26std_cache_aligned_allocateEmm, %2 ], [ %.pre2, %._crit_edge ]
  %5 = phi ptr [ @malloc, %2 ], [ %.pre, %._crit_edge ]
  %6 = phi ptr [ @.str.3, %2 ], [ @.str.2, %._crit_edge ]
  %7 = ptrtoint ptr %5 to i64
  store atomic i64 %7, ptr @_ZN3tbb6detail2r1L16allocate_handlerE.0 release, align 8
  %8 = ptrtoint ptr %4 to i64
  store atomic i64 %8, ptr @_ZN3tbb6detail2r1L30cache_aligned_allocate_handlerE.0 release, align 8
  tail call void (ptr, ptr, ...) @_ZN3tbb6detail2r121PrintExtraVersionInfoEPKcS3_z(ptr noundef nonnull @.str.1, ptr noundef nonnull %6)
  ret void
}